target datalayout = "e-m:e-p270:32:32-p271:32:32-p272:64:64-i64:64-i128:128-f80:128-n8:16:32:64-S128"
target triple = "x86_64-pc-linux-gnu"

%struct.SUNMemory_ = type { ptr, i32, i32, i64 }
%struct.SUNMemoryHelper_ = type { ptr, ptr, ptr }

; Function Attrs: nounwind uwtable
define ptr @SUNMemoryNewEmpty(ptr noundef %0) #0 {
  %2 = alloca ptr, align 8
  %3 = alloca ptr, align 8
  %4 = alloca ptr, align 8
  store ptr %0, ptr %2, align 8, !tbaa !3
  call void @llvm.lifetime.start.p0(i64 8, ptr %3) #6
  %5 = load ptr, ptr %2, align 8, !tbaa !3
  store ptr %5, ptr %3, align 8, !tbaa !3
  call void @llvm.lifetime.start.p0(i64 8, ptr %4) #6
  store ptr null, ptr %4, align 8, !tbaa !8
  %6 = call noalias ptr @malloc(i64 noundef 24) #7
  store ptr %6, ptr %4, align 8, !tbaa !8
  %7 = load ptr, ptr %4, align 8, !tbaa !8
  %8 = getelementptr inbounds nuw %struct.SUNMemory_, ptr %7, i32 0, i32 3
  store i64 0, ptr %8, align 8, !tbaa !10
  %9 = load ptr, ptr %4, align 8, !tbaa !8
  call void @llvm.lifetime.end.p0(i64 8, ptr %4) #6
  call void @llvm.lifetime.end.p0(i64 8, ptr %3) #6
  ret ptr %9
}

; Function Attrs: nounwind uwtable
define ptr @SUNMemoryHelper_Alias(ptr noundef %0, ptr noundef %1) #0 {
  %3 = alloca ptr, align 8
  %4 = alloca ptr, align 8
  %5 = alloca ptr, align 8
  %6 = alloca ptr, align 8
  store ptr %0, ptr %3, align 8, !tbaa !14
  store ptr %1, ptr %4, align 8, !tbaa !8
  call void @llvm.lifetime.start.p0(i64 8, ptr %5) #6
  %7 = load ptr, ptr %3, align 8, !tbaa !14
  %8 = getelementptr inbounds nuw %struct.SUNMemoryHelper_, ptr %7, i32 0, i32 2
  %9 = load ptr, ptr %8, align 8, !tbaa !20
  store ptr %9, ptr %5, align 8, !tbaa !3
  call void @llvm.lifetime.start.p0(i64 8, ptr %6) #6
  %10 = load ptr, ptr %3, align 8, !tbaa !14
  %11 = getelementptr inbounds nuw %struct.SUNMemoryHelper_, ptr %10, i32 0, i32 2
  %12 = load ptr, ptr %11, align 8, !tbaa !20
  %13 = call ptr @SUNMemoryNewEmpty(ptr noundef %12)
  store ptr %13, ptr %6, align 8, !tbaa !8
  %14 = load ptr, ptr %4, align 8, !tbaa !8
  %15 = getelementptr inbounds nuw %struct.SUNMemory_, ptr %14, i32 0, i32 0
  %16 = load ptr, ptr %15, align 8, !tbaa !25
  %17 = load ptr, ptr %6, align 8, !tbaa !8
  %18 = getelementptr inbounds nuw %struct.SUNMemory_, ptr %17, i32 0, i32 0
  store ptr %16, ptr %18, align 8, !tbaa !25
  %19 = load ptr, ptr %4, align 8, !tbaa !8
  %20 = getelementptr inbounds nuw %struct.SUNMemory_, ptr %19, i32 0, i32 1
  %21 = load i32, ptr %20, align 8, !tbaa !26
  %22 = load ptr, ptr %6, align 8, !tbaa !8
  %23 = getelementptr inbounds nuw %struct.SUNMemory_, ptr %22, i32 0, i32 1
  store i32 %21, ptr %23, align 8, !tbaa !26
  %24 = load ptr, ptr %6, align 8, !tbaa !8
  %25 = getelementptr inbounds nuw %struct.SUNMemory_, ptr %24, i32 0, i32 2
  store i32 0, ptr %25, align 4, !tbaa !27
  %26 = load ptr, ptr %6, align 8, !tbaa !8
  call void @llvm.lifetime.end.p0(i64 8, ptr %6) #6
  call void @llvm.lifetime.end.p0(i64 8, ptr %5) #6
  ret ptr %26
}