; Function Attrs: mustprogress nofree nounwind willreturn memory(write, argmem: read, inaccessiblemem: readwrite) uwtable
define noalias noundef ptr @SUNMemoryHelper_Alias(ptr noundef readonly captures(none) %0, ptr noundef readonly captures(none) %1) local_unnamed_addr #5 {
  %3 = tail call noalias noundef dereferenceable_or_null(24) ptr @malloc(i64 noundef 24) #9
  %4 = getelementptr inbounds nuw i8, ptr %3, i64 16
  store i64 0, ptr %4, align 8, !tbaa !3
  %5 = load ptr, ptr %1, align 8, !tbaa !20
  store ptr %5, ptr %3, align 8, !tbaa !20
  %6 = getelementptr inbounds nuw i8, ptr %1, i64 8
  %7 = load i32, ptr %6, align 8, !tbaa !21
  %8 = getelementptr inbounds nuw i8, ptr %3, i64 8
  store i32 %7, ptr %8, align 8, !tbaa !21
  %9 = getelementptr inbounds nuw i8, ptr %3, i64 12
  store i32 0, ptr %9, align 4, !tbaa !22
  ret ptr %3
}